target datalayout = "e-m:e-p270:32:32-p271:32:32-p272:64:64-i64:64-i128:128-f80:128-n8:16:32:64-S128"
target triple = "x86_64-pc-linux-gnu"

%struct.sockaddr = type { i16, [14 x i8] }
%struct.sockaddr_ll = type { i16, i16, i32, i16, i8, i8, [8 x i8] }
%struct.ifaddrs = type { ptr, ptr, i32, ptr, ptr, %union.anon.20, ptr }
%union.anon.20 = type { ptr }

@.str.67 = private unnamed_addr constant [11 x i8] c"getifaddrs\00", align 1

; Function Attrs: nounwind sspstrong uwtable
define internal i64 @sockaddr_obj(ptr noundef %0, i32 noundef %1) #0 {
  %3 = alloca i64, align 8
  %4 = alloca ptr, align 8
  %5 = alloca i32, align 4
  store ptr %0, ptr %4, align 8, !tbaa !15
  store i32 %1, ptr %5, align 4, !tbaa !13
  %6 = load ptr, ptr %4, align 8, !tbaa !15
  %7 = icmp eq ptr %6, null
  br i1 %7, label %8, label %9

8:                                                ; preds = %2
  store i64 4, ptr %3, align 8
  br label %19

9:                                                ; preds = %2
  %10 = load ptr, ptr %4, align 8, !tbaa !15
  %11 = call i32 @sockaddr_len(ptr noundef %10)
  store i32 %11, ptr %5, align 4, !tbaa !13
  %12 = load ptr, ptr %4, align 8, !tbaa !15
  %13 = load i32, ptr %5, align 4, !tbaa !13
  %14 = load ptr, ptr %4, align 8, !tbaa !15
  %15 = getelementptr inbounds nuw %struct.sockaddr, ptr %14, i32 0, i32 0
  %16 = load i16, ptr %15, align 2, !tbaa !46
  %17 = zext i16 %16 to i32
  %18 = call i64 @rsock_addrinfo_new(ptr noundef %12, i32 noundef %13, i32 noundef %17, i32 noundef 0, i32 noundef 0, i64 noundef 4, i64 noundef 4)
  store i64 %18, ptr %3, align 8
  br label %19

19:                                               ; preds = %9, %8
  %20 = load i64, ptr %3, align 8
  ret i64 %20
}

; Function Attrs: nounwind sspstrong uwtable
define internal i32 @sockaddr_len(ptr noundef %0) #0 {
  %2 = alloca i32, align 4
  %3 = alloca ptr, align 8
  store ptr %0, ptr %3, align 8, !tbaa !15
  %4 = load ptr, ptr %3, align 8, !tbaa !15
  %5 = icmp eq ptr %4, null
  br i1 %5, label %6, label %7

6:                                                ; preds = %1
  store i32 0, ptr %2, align 4
  br label %23

7:                                                ; preds = %1
  %8 = load ptr, ptr %3, align 8, !tbaa !15
  %9 = getelementptr inbounds nuw %struct.sockaddr, ptr %8, i32 0, i32 0
  %10 = load i16, ptr %9, align 2, !tbaa !46
  %11 = zext i16 %10 to i32
  switch i32 %11, label %22 [
    i32 2, label %12
    i32 10, label %13
    i32 1, label %14
    i32 17, label %15
  ]

12:                                               ; preds = %7
  store i32 16, ptr %2, align 4
  br label %23

13:                                               ; preds = %7
  store i32 28, ptr %2, align 4
  br label %23

14:                                               ; preds = %7
  store i32 110, ptr %2, align 4
  br label %23

15:                                               ; preds = %7
  %16 = load ptr, ptr %3, align 8, !tbaa !15
  %17 = getelementptr inbounds nuw %struct.sockaddr_ll, ptr %16, i32 0, i32 5
  %18 = load i8, ptr %17, align 1, !tbaa !49
  %19 = zext i8 %18 to i64
  %20 = add i64 12, %19
  %21 = trunc i64 %20 to i32
  store i32 %21, ptr %2, align 4
  br label %23

22:                                               ; preds = %7
  store i32 2, ptr %2, align 4
  br label %23

23:                                               ; preds = %22, %15, %14, %13, %12, %6
  %24 = load i32, ptr %2, align 4
  ret i32 %24
}

; Function Attrs: nounwind sspstrong uwtable
define internal i64 @socket_s_ip_address_list(i64 noundef %0) #0 {
  %2 = alloca i64, align 8
  %3 = alloca ptr, align 8
  %4 = alloca ptr, align 8
  %5 = alloca i32, align 4
  %6 = alloca i64, align 8
  %7 = alloca i32, align 4
  %8 = alloca ptr, align 8
  store i64 %0, ptr %2, align 8, !tbaa !11
  call void @llvm.lifetime.start.p0(i64 8, ptr %3) #24
  store ptr null, ptr %3, align 8, !tbaa !93
  call void @llvm.lifetime.start.p0(i64 8, ptr %4) #24
  call void @llvm.lifetime.start.p0(i64 4, ptr %5) #24
  call void @llvm.lifetime.start.p0(i64 8, ptr %6) #24
  %9 = call i32 @getifaddrs(ptr noundef %3) #24
  store i32 %9, ptr %5, align 4, !tbaa !13
  %10 = load i32, ptr %5, align 4, !tbaa !13
  %11 = icmp eq i32 %10, -1
  br i1 %11, label %12, label %19

12:                                               ; preds = %1
  br label %13

13:                                               ; preds = %12
  call void @llvm.lifetime.start.p0(i64 4, ptr %7) #24
  %14 = call ptr @rb_errno_ptr()
  %15 = load i32, ptr %14, align 4, !tbaa !13
  store i32 %15, ptr %7, align 4, !tbaa !13
  %16 = load i32, ptr %7, align 4, !tbaa !13
  call void @rb_syserr_fail(i32 noundef %16, ptr noundef @.str.67) #23
  unreachable

17:                                               ; No predecessors!
  br label %18

18:                                               ; preds = %17
  br label %19

19:                                               ; preds = %18, %1
  %20 = call i64 @rb_ary_new()
  store i64 %20, ptr %6, align 8, !tbaa !11
  %21 = load ptr, ptr %3, align 8, !tbaa !93
  store ptr %21, ptr %4, align 8, !tbaa !93
  br label %22

22:                                               ; preds = %57, %19
  %23 = load ptr, ptr %4, align 8, !tbaa !93
  %24 = icmp ne ptr %23, null
  br i1 %24, label %25, label %61

25:                                               ; preds = %22
  %26 = load ptr, ptr %4, align 8, !tbaa !93
  %27 = getelementptr inbounds nuw %struct.ifaddrs, ptr %26, i32 0, i32 3
  %28 = load ptr, ptr %27, align 8, !tbaa !95
  %29 = icmp ne ptr %28, null
  br i1 %29, label %30, label %56

30:                                               ; preds = %25
  %31 = load ptr, ptr %4, align 8, !tbaa !93
  %32 = getelementptr inbounds nuw %struct.ifaddrs, ptr %31, i32 0, i32 3
  %33 = load ptr, ptr %32, align 8, !tbaa !95
  %34 = getelementptr inbounds nuw %struct.sockaddr, ptr %33, i32 0, i32 0
  %35 = load i16, ptr %34, align 2, !tbaa !46
  %36 = zext i16 %35 to i32
  %37 = icmp eq i32 %36, 2
  br i1 %37, label %46, label %38

38:                                               ; preds = %30
  %39 = load ptr, ptr %4, align 8, !tbaa !93
  %40 = getelementptr inbounds nuw %struct.ifaddrs, ptr %39, i32 0, i32 3
  %41 = load ptr, ptr %40, align 8, !tbaa !95
  %42 = getelementptr inbounds nuw %struct.sockaddr, ptr %41, i32 0, i32 0
  %43 = load i16, ptr %42, align 2, !tbaa !46
  %44 = zext i16 %43 to i32
  %45 = icmp eq i32 %44, 10
  br i1 %45, label %46, label %56

46:                                               ; preds = %38, %30
  call void @llvm.lifetime.start.p0(i64 8, ptr %8) #24
  %47 = load ptr, ptr %4, align 8, !tbaa !93
  %48 = getelementptr inbounds nuw %struct.ifaddrs, ptr %47, i32 0, i32 3
  %49 = load ptr, ptr %48, align 8, !tbaa !95
  store ptr %49, ptr %8, align 8, !tbaa !15
  %50 = load i64, ptr %6, align 8, !tbaa !11
  %51 = load ptr, ptr %8, align 8, !tbaa !15
  %52 = load ptr, ptr %8, align 8, !tbaa !15
  %53 = call i32 @sockaddr_len(ptr noundef %52)
  %54 = call i64 @sockaddr_obj(ptr noundef %51, i32 noundef %53)
  %55 = call i64 @rb_ary_push(i64 noundef %50, i64 noundef %54)
  call void @llvm.lifetime.end.p0(i64 8, ptr %8) #24
  br label %56

56:                                               ; preds = %46, %38, %25
  br label %57

57:                                               ; preds = %56
  %58 = load ptr, ptr %4, align 8, !tbaa !93
  %59 = getelementptr inbounds nuw %struct.ifaddrs, ptr %58, i32 0, i32 0
  %60 = load ptr, ptr %59, align 8, !tbaa !97
  store ptr %60, ptr %4, align 8, !tbaa !93
  br label %22, !llvm.loop !98

61:                                               ; preds = %22
  %62 = load ptr, ptr %3, align 8, !tbaa !93
  call void @freeifaddrs(ptr noundef %62) #24
  %63 = load i64, ptr %6, align 8, !tbaa !11
  call void @llvm.lifetime.end.p0(i64 8, ptr %6) #24
  call void @llvm.lifetime.end.p0(i64 4, ptr %5) #24
  call void @llvm.lifetime.end.p0(i64 8, ptr %4) #24
  call void @llvm.lifetime.end.p0(i64 8, ptr %3) #24
  ret i64 %63
}