; Function Attrs: nounwind sspstrong uwtable
define internal i64 @socket_s_ip_address_list(i64 %0) #0 {
  %2 = alloca ptr, align 8
  call void @llvm.lifetime.start.p0(i64 8, ptr nonnull %2) #16
  store ptr null, ptr %2, align 8, !tbaa !108
  %3 = call i32 @getifaddrs(ptr noundef nonnull %2) #16
  %4 = icmp eq i32 %3, -1
  br i1 %4, label %5, label %8

5:                                                ; preds = %1
  %6 = call ptr @rb_errno_ptr() #16
  %7 = load i32, ptr %6, align 4, !tbaa !6
  call void @rb_syserr_fail(i32 noundef %7, ptr noundef nonnull @.str.67) #18
  unreachable

8:                                                ; preds = %1
  %9 = call i64 @rb_ary_new() #16
  %.015 = load ptr, ptr %2, align 8, !tbaa !108
  %.not16 = icmp eq ptr %.015, null
  br i1 %.not16, label %._crit_edge, label %.lr.ph

.lr.ph:                                           ; preds = %8, %18
  %.017 = phi ptr [ %.0, %18 ], [ %.015, %8 ]
  %10 = getelementptr inbounds nuw i8, ptr %.017, i64 24
  %11 = load ptr, ptr %10, align 8, !tbaa !110
  %.not13 = icmp eq ptr %11, null
  br i1 %.not13, label %18, label %12

12:                                               ; preds = %.lr.ph
  %13 = load i16, ptr %11, align 2, !tbaa !35
  switch i16 %13, label %18 [
    i16 2, label %sockaddr_obj.exit
    i16 10, label %14
  ]

14:                                               ; preds = %12
  br label %sockaddr_obj.exit

sockaddr_obj.exit:                                ; preds = %12, %14
  %.0.i.i = phi i32 [ 28, %14 ], [ 16, %12 ]
  %15 = zext nneg i16 %13 to i32
  %16 = call i64 @rsock_addrinfo_new(ptr noundef nonnull %11, i32 noundef %.0.i.i, i32 noundef %15, i32 noundef 0, i32 noundef 0, i64 noundef 4, i64 noundef 4) #16
  %17 = call i64 @rb_ary_push(i64 noundef %9, i64 noundef %16) #16
  br label %18

18:                                               ; preds = %12, %.lr.ph, %sockaddr_obj.exit
  %.0 = load ptr, ptr %.017, align 8, !tbaa !108
  %.not = icmp eq ptr %.0, null
  br i1 %.not, label %._crit_edge.loopexit, label %.lr.ph, !llvm.loop !112

._crit_edge.loopexit:                             ; preds = %18
  %.pre = load ptr, ptr %2, align 8, !tbaa !108
  br label %._crit_edge

._crit_edge:                                      ; preds = %._crit_edge.loopexit, %8
  %19 = phi ptr [ %.pre, %._crit_edge.loopexit ], [ null, %8 ]
  call void @freeifaddrs(ptr noundef %19) #16
  call void @llvm.lifetime.end.p0(i64 8, ptr nonnull %2) #16
  ret i64 %9
}